target datalayout = "e-m:e-p270:32:32-p271:32:32-p272:64:64-i64:64-i128:128-f80:128-n8:16:32:64-S128"
target triple = "x86_64-pc-linux-gnu"

%struct.slurm_conf_t = type { i64, ptr, i16, ptr, ptr, ptr, ptr, ptr, i16, ptr, ptr, ptr, ptr, ptr, ptr, ptr, i16, ptr, ptr, ptr, ptr, i16, ptr, ptr, ptr, i64, ptr, ptr, ptr, ptr, i16, ptr, ptr, i16, i32, ptr, i32, ptr, i32, i32, ptr, ptr, i64, i64, ptr, i16, i16, ptr, i32, i32, ptr, i32, ptr, i32, i16, i16, i16, ptr, i16, i16, ptr, ptr, i32, i16, i16, ptr, i32, i16, ptr, ptr, ptr, ptr, i16, ptr, ptr, ptr, ptr, i32, ptr, ptr, ptr, ptr, i16, i16, ptr, i32, i32, i32, i16, i16, ptr, ptr, i16, ptr, ptr, i32, i32, i32, i32, i32, i64, i32, i32, i16, ptr, ptr, i32, ptr, ptr, ptr, i16, i32, ptr, ptr, i16, ptr, ptr, i32, i16, ptr, ptr, ptr, ptr, i32, i32, i16, i16, i32, ptr, i16, ptr, i32, i32, i32, i32, i32, i32, ptr, i16, ptr, ptr, i32, i16, ptr, i32, i16, i16, ptr, ptr, ptr, i16, ptr, ptr, ptr, ptr, i16, i16, ptr, i16, ptr, i16, ptr, i16, ptr, i16, ptr, ptr, ptr, ptr, i16, ptr, ptr, ptr, i32, ptr, i32, ptr, ptr, i16, ptr, ptr, i32, i16, ptr, ptr, i16, i16, ptr, i16, ptr, ptr, ptr, i32, ptr, i16, i16, ptr, ptr, ptr, ptr, ptr, ptr, ptr, ptr, i16, i32, i16, ptr, ptr, ptr, ptr, i32, ptr, ptr, ptr, i16, ptr, ptr, ptr, i16, ptr, i16, ptr, i16, i16, ptr }
%struct.data_list_s = type { i32, i64, ptr, ptr }
%struct.data_list_node_s = type { i32, ptr, ptr, ptr }

@slurm_conf = external global %struct.slurm_conf_t, align 8
@.str.79 = private unnamed_addr constant [37 x i8] c"DATA: %s: free data-list(0x%lx)[%zu]\00", align 1
@__func__._release_data_list_node = private unnamed_addr constant [24 x i8] c"_release_data_list_node\00", align 1

; Function Attrs: nounwind uwtable
define internal void @_check_data_list_node_parent(ptr noundef %0, ptr noundef %1) #0 {
  %3 = alloca ptr, align 8
  %4 = alloca ptr, align 8
  store ptr %0, ptr %3, align 8
  store ptr %1, ptr %4, align 8
  ret void
}

; Function Attrs: nounwind uwtable
define internal void @_check_data_list_node_magic(ptr noundef %0) #0 {
  %2 = alloca ptr, align 8
  store ptr %0, ptr %2, align 8
  ret void
}

; Function Attrs: nounwind uwtable
define internal void @_check_data_list_magic(ptr noundef %0) #0 {
  %2 = alloca ptr, align 8
  store ptr %0, ptr %2, align 8
  ret void
}

; Function Attrs: nounwind uwtable
define internal void @_release_data_list_node(ptr noundef %0, ptr noundef %1) #0 {
  %3 = alloca ptr, align 8
  %4 = alloca ptr, align 8
  %5 = alloca ptr, align 8
  store ptr %0, ptr %3, align 8
  store ptr %1, ptr %4, align 8
  %6 = load ptr, ptr %3, align 8
  call void @_check_data_list_magic(ptr noundef %6)
  %7 = load ptr, ptr %4, align 8
  call void @_check_data_list_node_magic(ptr noundef %7)
  %8 = load ptr, ptr %3, align 8
  %9 = load ptr, ptr %4, align 8
  call void @_check_data_list_node_parent(ptr noundef %8, ptr noundef %9)
  call void @llvm.lifetime.start.p0(i64 8, ptr %5) #10
  br label %10

10:                                               ; preds = %2
  %11 = load i64, ptr getelementptr inbounds nuw (%struct.slurm_conf_t, ptr @slurm_conf, i32 0, i32 42), align 8
  %12 = and i64 %11, 256
  %13 = icmp ne i64 %12, 0
  br i1 %13, label %14, label %27

14:                                               ; preds = %10
  br label %15

15:                                               ; preds = %14
  %16 = call i32 @get_log_level()
  %17 = icmp sge i32 %16, 4
  br i1 %17, label %18, label %24

18:                                               ; preds = %15
  %19 = load ptr, ptr %3, align 8
  %20 = ptrtoint ptr %19 to i64
  %21 = load ptr, ptr %3, align 8
  %22 = getelementptr inbounds nuw %struct.data_list_s, ptr %21, i32 0, i32 1
  %23 = load i64, ptr %22, align 8
  call void (i32, ptr, ...) @log_var(i32 noundef 4, ptr noundef @.str.79, ptr noundef @__func__._release_data_list_node, i64 noundef %20, i64 noundef %23)
  br label %24

24:                                               ; preds = %18, %15
  br label %25

25:                                               ; preds = %24
  br label %26

26:                                               ; preds = %25
  br label %27

27:                                               ; preds = %26, %10
  br label %28

28:                                               ; preds = %27
  br label %29

29:                                               ; preds = %28
  %30 = load ptr, ptr %3, align 8
  %31 = getelementptr inbounds nuw %struct.data_list_s, ptr %30, i32 0, i32 2
  %32 = load ptr, ptr %31, align 8
  store ptr %32, ptr %5, align 8
  br label %33

33:                                               ; preds = %53, %29
  %34 = load ptr, ptr %5, align 8
  %35 = icmp ne ptr %34, null
  br i1 %35, label %36, label %42

36:                                               ; preds = %33
  %37 = load ptr, ptr %5, align 8
  %38 = getelementptr inbounds nuw %struct.data_list_node_s, ptr %37, i32 0, i32 1
  %39 = load ptr, ptr %38, align 8
  %40 = load ptr, ptr %4, align 8
  %41 = icmp ne ptr %39, %40
  br label %42

42:                                               ; preds = %36, %33
  %43 = phi i1 [ false, %33 ], [ %41, %36 ]
  br i1 %43, label %44, label %54

44:                                               ; preds = %42
  %45 = load ptr, ptr %5, align 8
  call void @_check_data_list_node_magic(ptr noundef %45)
  %46 = load ptr, ptr %5, align 8
  %47 = getelementptr inbounds nuw %struct.data_list_node_s, ptr %46, i32 0, i32 1
  %48 = load ptr, ptr %47, align 8
  store ptr %48, ptr %5, align 8
  %49 = load ptr, ptr %5, align 8
  %50 = icmp ne ptr %49, null
  br i1 %50, label %51, label %53

51:                                               ; preds = %44
  %52 = load ptr, ptr %5, align 8
  call void @_check_data_list_node_magic(ptr noundef %52)
  br label %53

53:                                               ; preds = %51, %44
  br label %33, !llvm.loop !13

54:                                               ; preds = %42
  %55 = load ptr, ptr %4, align 8
  %56 = load ptr, ptr %3, align 8
  %57 = getelementptr inbounds nuw %struct.data_list_s, ptr %56, i32 0, i32 2
  %58 = load ptr, ptr %57, align 8
  %59 = icmp eq ptr %55, %58
  br i1 %59, label %60, label %75

60:                                               ; preds = %54
  %61 = load ptr, ptr %4, align 8
  %62 = getelementptr inbounds nuw %struct.data_list_node_s, ptr %61, i32 0, i32 1
  %63 = load ptr, ptr %62, align 8
  %64 = load ptr, ptr %3, align 8
  %65 = getelementptr inbounds nuw %struct.data_list_s, ptr %64, i32 0, i32 2
  store ptr %63, ptr %65, align 8
  %66 = load ptr, ptr %3, align 8
  %67 = getelementptr inbounds nuw %struct.data_list_s, ptr %66, i32 0, i32 3
  %68 = load ptr, ptr %67, align 8
  %69 = load ptr, ptr %4, align 8
  %70 = icmp eq ptr %68, %69
  br i1 %70, label %71, label %74

71:                                               ; preds = %60
  %72 = load ptr, ptr %3, align 8
  %73 = getelementptr inbounds nuw %struct.data_list_s, ptr %72, i32 0, i32 3
  store ptr null, ptr %73, align 8
  br label %74

74:                                               ; preds = %71, %60
  br label %94

75:                                               ; preds = %54
  %76 = load ptr, ptr %4, align 8
  %77 = load ptr, ptr %3, align 8
  %78 = getelementptr inbounds nuw %struct.data_list_s, ptr %77, i32 0, i32 3
  %79 = load ptr, ptr %78, align 8
  %80 = icmp eq ptr %76, %79
  br i1 %80, label %81, label %87

81:                                               ; preds = %75
  %82 = load ptr, ptr %5, align 8
  %83 = load ptr, ptr %3, align 8
  %84 = getelementptr inbounds nuw %struct.data_list_s, ptr %83, i32 0, i32 3
  store ptr %82, ptr %84, align 8
  %85 = load ptr, ptr %5, align 8
  %86 = getelementptr inbounds nuw %struct.data_list_node_s, ptr %85, i32 0, i32 1
  store ptr null, ptr %86, align 8
  br label %93

87:                                               ; preds = %75
  %88 = load ptr, ptr %4, align 8
  %89 = getelementptr inbounds nuw %struct.data_list_node_s, ptr %88, i32 0, i32 1
  %90 = load ptr, ptr %89, align 8
  %91 = load ptr, ptr %5, align 8
  %92 = getelementptr inbounds nuw %struct.data_list_node_s, ptr %91, i32 0, i32 1
  store ptr %90, ptr %92, align 8
  br label %93

93:                                               ; preds = %87, %81
  br label %94

94:                                               ; preds = %93, %74
  %95 = load ptr, ptr %3, align 8
  %96 = getelementptr inbounds nuw %struct.data_list_s, ptr %95, i32 0, i32 1
  %97 = load i64, ptr %96, align 8
  %98 = add i64 %97, -1
  store i64 %98, ptr %96, align 8
  br label %99

99:                                               ; preds = %94
  %100 = load ptr, ptr %4, align 8
  %101 = getelementptr inbounds nuw %struct.data_list_node_s, ptr %100, i32 0, i32 2
  %102 = load ptr, ptr %101, align 8
  %103 = icmp ne ptr %102, null
  br i1 %103, label %104, label %108

104:                                              ; preds = %99
  %105 = load ptr, ptr %4, align 8
  %106 = getelementptr inbounds nuw %struct.data_list_node_s, ptr %105, i32 0, i32 2
  %107 = load ptr, ptr %106, align 8
  call void @data_free(ptr noundef %107)
  br label %108

108:                                              ; preds = %104, %99
  %109 = load ptr, ptr %4, align 8
  %110 = getelementptr inbounds nuw %struct.data_list_node_s, ptr %109, i32 0, i32 2
  store ptr null, ptr %110, align 8
  br label %111

111:                                              ; preds = %108
  br label %112

112:                                              ; preds = %111
  %113 = load ptr, ptr %4, align 8
  %114 = getelementptr inbounds nuw %struct.data_list_node_s, ptr %113, i32 0, i32 3
  call void @slurm_xfree(ptr noundef %114)
  %115 = load ptr, ptr %4, align 8
  %116 = getelementptr inbounds nuw %struct.data_list_node_s, ptr %115, i32 0, i32 0
  store i32 -421656736, ptr %116, align 8
  call void @slurm_xfree(ptr noundef %4)
  call void @llvm.lifetime.end.p0(i64 8, ptr %5) #10
  ret void
}