; Function Attrs: nounwind uwtable
define internal fastcc void @_release_data_list_node(ptr noundef %0, ptr noundef nonnull %1) unnamed_addr #0 {
  %3 = alloca ptr, align 8
  store ptr %1, ptr %3, align 8
  %4 = load i64, ptr getelementptr inbounds nuw (i8, ptr @slurm_conf, i64 320), align 8
  %5 = and i64 %4, 256
  %.not = icmp eq i64 %5, 0
  br i1 %.not, label %13, label %6

6:                                                ; preds = %2
  %7 = tail call i32 @get_log_level() #16
  %8 = icmp sgt i32 %7, 3
  br i1 %8, label %9, label %13

9:                                                ; preds = %6
  %10 = ptrtoint ptr %0 to i64
  %11 = getelementptr inbounds nuw i8, ptr %0, i64 8
  %12 = load i64, ptr %11, align 8
  tail call void (i32, ptr, ...) @log_var(i32 noundef 4, ptr noundef nonnull @.str.79, ptr noundef nonnull @__func__._release_data_list_node, i64 noundef %10, i64 noundef %12) #16
  br label %13

13:                                               ; preds = %6, %9, %2
  %14 = getelementptr inbounds nuw i8, ptr %0, i64 16
  %15 = load ptr, ptr %14, align 8
  br label %16

16:                                               ; preds = %17, %13
  %.0 = phi ptr [ %15, %13 ], [ %19, %17 ]
  %.not24 = icmp eq ptr %.0, null
  br i1 %.not24, label %.critedge, label %17

17:                                               ; preds = %16
  %18 = getelementptr inbounds nuw i8, ptr %.0, i64 8
  %19 = load ptr, ptr %18, align 8
  %.not25 = icmp eq ptr %19, %1
  br i1 %.not25, label %.critedge, label %16, !llvm.loop !12

.critedge:                                        ; preds = %16, %17
  %20 = icmp eq ptr %1, %15
  br i1 %20, label %21, label %28

21:                                               ; preds = %.critedge
  %22 = getelementptr inbounds nuw i8, ptr %1, i64 8
  %23 = load ptr, ptr %22, align 8
  store ptr %23, ptr %14, align 8
  %24 = getelementptr inbounds nuw i8, ptr %0, i64 24
  %25 = load ptr, ptr %24, align 8
  %26 = icmp eq ptr %25, %1
  br i1 %26, label %27, label %38

27:                                               ; preds = %21
  store ptr null, ptr %24, align 8
  br label %38

28:                                               ; preds = %.critedge
  %29 = getelementptr inbounds nuw i8, ptr %0, i64 24
  %30 = load ptr, ptr %29, align 8
  %31 = icmp eq ptr %1, %30
  br i1 %31, label %32, label %34

32:                                               ; preds = %28
  store ptr %.0, ptr %29, align 8
  %33 = getelementptr inbounds nuw i8, ptr %.0, i64 8
  store ptr null, ptr %33, align 8
  br label %38

34:                                               ; preds = %28
  %35 = getelementptr inbounds nuw i8, ptr %1, i64 8
  %36 = load ptr, ptr %35, align 8
  %37 = getelementptr inbounds nuw i8, ptr %.0, i64 8
  store ptr %36, ptr %37, align 8
  br label %38

38:                                               ; preds = %32, %34, %21, %27
  %39 = getelementptr inbounds nuw i8, ptr %0, i64 8
  %40 = load i64, ptr %39, align 8
  %41 = add i64 %40, -1
  store i64 %41, ptr %39, align 8
  %42 = getelementptr inbounds nuw i8, ptr %1, i64 16
  %43 = load ptr, ptr %42, align 8
  %.not26 = icmp eq ptr %43, null
  br i1 %.not26, label %45, label %44

44:                                               ; preds = %38
  tail call void @data_free(ptr noundef nonnull %43)
  br label %45

45:                                               ; preds = %44, %38
  store ptr null, ptr %42, align 8
  %46 = getelementptr inbounds nuw i8, ptr %1, i64 24
  tail call void @slurm_xfree(ptr noundef nonnull %46) #16
  store i32 -421656736, ptr %1, align 8
  call void @slurm_xfree(ptr noundef nonnull %3) #16
  ret void
}